Certificate Request:
    Data:
        Version: 1 (0x0)
        Subject: CN = 10.124.0.2
        Subject Public Key Info:
            Public Key Algorithm: rsaEncryption
                Public-Key: (2048 bit)
                Modulus:
                    00:c4:47:f5:83:bc:3e:ce:a7:05:13:38:61:c4:ec:
                    96:46:9c:12:12:8c:ed:71:04:3d:91:cc:03:96:5d:
                    bd:0d:fa:0f:59:27:2d:9b:31:58:a2:fb:84:92:08:
                    57:7e:51:c2:e4:dc:e7:38:33:ed:dc:68:9d:a5:9c:
                    97:30:be:fa:c8:72:b7:56:6f:69:f3:07:b1:93:50:
                    af:1e:fd:a7:cb:30:05:1b:01:ca:0f:d7:b8:51:1b:
                    c1:cc:6f:13:10:70:ea:bd:6d:db:34:e9:00:ed:9d:
                    cb:ec:76:4a:7a:7a:ac:af:61:e5:0c:c2:51:8f:87:
                    0e:eb:b9:45:74:34:4d:8c:44:9c:3b:1b:0e:39:f0:
                    78:cc:83:f9:17:b1:25:b0:ff:d4:d0:d1:b0:83:3b:
                    e2:f3:df:75:ad:9c:f8:8c:e5:38:18:58:0f:60:17:
                    50:6d:99:c3:94:44:76:6c:88:4d:92:26:50:11:54:
                    0d:5b:e4:7e:7f:ef:75:35:1a:65:17:f9:c8:c4:63:
                    64:81:c5:eb:f1:3b:71:41:69:80:c0:53:f4:ff:d4:
                    b3:42:3a:4a:49:c8:8d:3d:85:ed:83:85:9f:f8:6e:
                    70:27:f2:73:84:93:4d:18:15:2f:b3:ef:59:81:7a:
                    56:b3:2c:a7:ba:7f:ca:97:ad:5a:fe:8d:4e:57:4b:
                    16:6b
                Exponent: 65537 (0x10001)
        Attributes:
            (none)
            Requested Extensions:
    Signature Algorithm: sha256WithRSAEncryption
    Signature Value:
        74:e6:7f:1c:e1:c4:32:ec:5c:13:9b:83:18:a3:e8:cd:ba:c1:
        c4:fc:79:e8:ca:48:1d:79:58:2b:e7:37:6b:3a:f7:e6:e5:80:
        f6:c7:63:c2:1a:0b:dc:1e:c2:4f:ea:bb:c4:a5:60:da:05:7d:
        eb:94:0a:89:8d:07:df:12:1a:27:dc:7b:38:88:c4:ea:d8:e2:
        a0:b9:cd:b6:88:4e:c9:2c:87:d4:f1:8e:99:20:6b:d3:6e:0e:
        6d:4a:a2:3d:cf:98:89:24:b1:15:12:27:8d:73:3a:71:2b:33:
        c8:f7:31:2f:dd:ca:e8:95:90:ce:a8:85:08:4f:d4:53:03:73:
        2a:e6:29:ef:0a:44:49:80:7b:83:7a:49:27:3d:1c:f8:1e:25:
        7e:36:9a:69:21:d9:84:f3:6b:df:29:e0:d3:5f:4e:c2:e0:7c:
        b0:b6:de:53:53:fa:0a:0f:db:88:33:ef:ed:3a:21:4d:d6:a0:
        de:5d:ae:12:f0:ed:ce:d5:bd:b0:38:7c:e1:99:c1:0d:0a:9b:
        98:c2:a6:f5:35:df:a0:68:fc:a5:d5:72:8e:c6:0f:6f:30:d0:
        80:3b:76:ce:8c:91:f0:08:c0:f6:ce:89:b5:41:e6:46:7a:cd:
        27:c6:74:b1:05:9a:20:45:b9:ff:ae:b4:50:7c:74:c8:2b:b9:
        01:64:86:d5
-----BEGIN CERTIFICATE REQUEST-----
MIICWjCCAUICAQAwFTETMBEGA1UEAwwKMTAuMTI0LjAuMjCCASIwDQYJKoZIhvcN
AQEBBQADggEPADCCAQoCggEBAMRH9YO8Ps6nBRM4YcTslkacEhKM7XEEPZHMA5Zd
vQ36D1knLZsxWKL7hJIIV35RwuTc5zgz7dxonaWclzC++shyt1ZvafMHsZNQrx79
p8swBRsByg/XuFEbwcxvExBw6r1t2zTpAO2dy+x2Snp6rK9h5QzCUY+HDuu5RXQ0
TYxEnDsbDjnweMyD+RexJbD/1NDRsIM74vPfda2c+IzlOBhYD2AXUG2Zw5REdmyI
TZImUBFUDVvkfn/vdTUaZRf5yMRjZIHF6/E7cUFpgMBT9P/Us0I6SknIjT2F7YOF
n/hucCfyc4STTRgVL7PvWYF6VrMsp7p/ypetWv6NTldLFmsCAwEAAaAAMA0GCSqG
SIb3DQEBCwUAA4IBAQB05n8c4cQy7FwTm4MYo+jNusHE/HnoykgdeVgr5zdrOvfm
5YD2x2PCGgvcHsJP6rvEpWDaBX3rlAqJjQffEhon3Hs4iMTq2OKguc22iE7JLIfU
8Y6ZIGvTbg5tSqI9z5iJJLEVEieNczpxKzPI9zEv3crolZDOqIUIT9RTA3Mq5inv
CkRJgHuDekknPRz4HiV+NpppIdmE82vfKeDTX07C4Hywtt5TU/oKD9uIM+/tOiFN
1qDeXa4S8O3O1b2wOHzhmcENCpuYwqb1Nd+gaPyl1XKOxg9vMNCAO3bOjJHwCMD2
zom1QeZGes0nxnSxBZogRbn/rrRQfHTIK7kBZIbV
-----END CERTIFICATE REQUEST-----
