Certificate:
    Data:
        Version: 1 (0x0)
        Serial Number:
            68:25:0f:16:85:e6:6b:5f:3b:a5:e2:38:5b:f2:03:53:b2:c5:a9:c4
        Signature Algorithm: sha256WithRSAEncryption
        Issuer: CN = 10.124.0.3
        Validity
            Not Before: Mar 13 05:09:09 2024 GMT
            Not After : Mar 13 05:09:09 2025 GMT
        Subject: CN = 10.124.0.2
        Subject Public Key Info:
            Public Key Algorithm: rsaEncryption
                Public-Key: (2048 bit)
                Modulus:
                    00:c4:47:f5:83:bc:3e:ce:a7:05:13:38:61:c4:ec:
                    96:46:9c:12:12:8c:ed:71:04:3d:91:cc:03:96:5d:
                    bd:0d:fa:0f:59:27:2d:9b:31:58:a2:fb:84:92:08:
                    57:7e:51:c2:e4:dc:e7:38:33:ed:dc:68:9d:a5:9c:
                    97:30:be:fa:c8:72:b7:56:6f:69:f3:07:b1:93:50:
                    af:1e:fd:a7:cb:30:05:1b:01:ca:0f:d7:b8:51:1b:
                    c1:cc:6f:13:10:70:ea:bd:6d:db:34:e9:00:ed:9d:
                    cb:ec:76:4a:7a:7a:ac:af:61:e5:0c:c2:51:8f:87:
                    0e:eb:b9:45:74:34:4d:8c:44:9c:3b:1b:0e:39:f0:
                    78:cc:83:f9:17:b1:25:b0:ff:d4:d0:d1:b0:83:3b:
                    e2:f3:df:75:ad:9c:f8:8c:e5:38:18:58:0f:60:17:
                    50:6d:99:c3:94:44:76:6c:88:4d:92:26:50:11:54:
                    0d:5b:e4:7e:7f:ef:75:35:1a:65:17:f9:c8:c4:63:
                    64:81:c5:eb:f1:3b:71:41:69:80:c0:53:f4:ff:d4:
                    b3:42:3a:4a:49:c8:8d:3d:85:ed:83:85:9f:f8:6e:
                    70:27:f2:73:84:93:4d:18:15:2f:b3:ef:59:81:7a:
                    56:b3:2c:a7:ba:7f:ca:97:ad:5a:fe:8d:4e:57:4b:
                    16:6b
                Exponent: 65537 (0x10001)
    Signature Algorithm: sha256WithRSAEncryption
    Signature Value:
        76:bc:b9:5f:c3:4a:d5:8d:d5:92:23:27:7f:8d:29:21:80:ac:
        a1:10:d2:23:0c:ad:7c:be:7a:1b:2d:76:cd:33:77:dd:34:66:
        22:05:22:85:4a:50:b9:d6:52:ab:bc:9e:38:23:86:e5:89:18:
        ce:83:c1:65:60:7a:ec:23:30:a2:72:f3:97:af:64:6e:b4:dc:
        9c:ab:34:ae:20:95:57:28:73:52:c5:b3:40:26:c5:16:48:85:
        de:a5:1d:e9:3d:82:80:e9:b3:dd:9f:dd:ae:8d:47:8b:06:6f:
        73:1a:e4:ed:34:78:27:4a:71:f4:6f:90:67:8f:d3:c7:e5:e6:
        2a:14:8f:2c:d5:ce:b2:aa:d5:c5:5c:a2:35:34:fd:79:85:a7:
        1b:3b:6e:2d:cd:20:ac:a3:56:4f:db:cf:5b:dc:1f:5d:0a:80:
        ca:f0:8f:2b:1b:8d:f7:13:36:df:eb:08:08:1f:98:b1:1e:96:
        24:12:21:da:14:a6:52:75:98:72:9c:a1:7c:d4:68:f8:f2:68:
        82:0e:0e:1f:86:91:8e:d4:64:61:a8:95:54:32:5e:c4:42:d3:
        be:bf:e5:37:75:67:0d:58:68:80:55:93:4a:6c:b7:50:bb:57:
        9c:28:bd:63:28:3a:0b:6d:32:43:65:15:e0:c6:bf:b1:92:00:
        8f:c8:ff:72
-----BEGIN CERTIFICATE-----
MIICsTCCAZkCFGglDxaF5mtfO6XiOFvyA1OyxanEMA0GCSqGSIb3DQEBCwUAMBUx
EzARBgNVBAMMCjEwLjEyNC4wLjMwHhcNMjQwMzEzMDUwOTA5WhcNMjUwMzEzMDUw
OTA5WjAVMRMwEQYDVQQDDAoxMC4xMjQuMC4yMIIBIjANBgkqhkiG9w0BAQEFAAOC
AQ8AMIIBCgKCAQEAxEf1g7w+zqcFEzhhxOyWRpwSEoztcQQ9kcwDll29DfoPWSct
mzFYovuEkghXflHC5NznODPt3GidpZyXML76yHK3Vm9p8wexk1CvHv2nyzAFGwHK
D9e4URvBzG8TEHDqvW3bNOkA7Z3L7HZKenqsr2HlDMJRj4cO67lFdDRNjEScOxsO
OfB4zIP5F7ElsP/U0NGwgzvi8991rZz4jOU4GFgPYBdQbZnDlER2bIhNkiZQEVQN
W+R+f+91NRplF/nIxGNkgcXr8TtxQWmAwFP0/9SzQjpKSciNPYXtg4Wf+G5wJ/Jz
hJNNGBUvs+9ZgXpWsyynun/Kl61a/o1OV0sWawIDAQABMA0GCSqGSIb3DQEBCwUA
A4IBAQB2vLlfw0rVjdWSIyd/jSkhgKyhENIjDK18vnobLXbNM3fdNGYiBSKFSlC5
1lKrvJ44I4bliRjOg8FlYHrsIzCicvOXr2RutNycqzSuIJVXKHNSxbNAJsUWSIXe
pR3pPYKA6bPdn92ujUeLBm9zGuTtNHgnSnH0b5Bnj9PH5eYqFI8s1c6yqtXFXKI1
NP15hacbO24tzSCso1ZP289b3B9dCoDK8I8rG433Ezbf6wgIH5ixHpYkEiHaFKZS
dZhynKF81Gj48miCDg4fhpGO1GRhqJVUMl7EQtO+v+U3dWcNWGiAVZNKbLdQu1ec
KL1jKDoLbTJDZRXgxr+xkgCPyP9y
-----END CERTIFICATE-----
